target datalayout = "e-m:e-p270:32:32-p271:32:32-p272:64:64-i64:64-i128:128-f80:128-n8:16:32:64-S128"
target triple = "x86_64-pc-linux-gnu"

%struct.strbuf = type { i64, i64, ptr }
%struct.stat = type { i64, i64, i64, i32, i32, i32, i32, i64, i64, i64, i64, %struct.timespec, %struct.timespec, %struct.timespec, [3 x i64] }
%struct.timespec = type { i64, i64 }

@enter_repo.validated_path = internal global %struct.strbuf { i64 0, i64 0, ptr @strbuf_slopbuf }, align 8
@enter_repo.used_path = internal global %struct.strbuf { i64 0, i64 0, ptr @strbuf_slopbuf }, align 8
@enter_repo.suffix = internal global [5 x ptr] [ptr @.str.5, ptr @.str.6, ptr @.str.7, ptr @.str.8, ptr null], align 16
@.str.9 = private unnamed_addr constant [2 x i8] c".\00", align 1

; Function Attrs: inlinehint nounwind uwtable
define internal void @strbuf_addstr(ptr noundef %0, ptr noundef %1) #2 {
  %3 = alloca ptr, align 8
  %4 = alloca ptr, align 8
  store ptr %0, ptr %3, align 8, !tbaa !8
  store ptr %1, ptr %4, align 8, !tbaa !43
  %5 = load ptr, ptr %3, align 8, !tbaa !8
  %6 = load ptr, ptr %4, align 8, !tbaa !43
  %7 = load ptr, ptr %4, align 8, !tbaa !43
  %8 = call i64 @strlen(ptr noundef %7) #14
  call void @strbuf_add(ptr noundef %5, ptr noundef %6, i64 noundef %8)
  ret void
}

; Function Attrs: nounwind uwtable
define dso_local ptr @enter_repo(ptr noundef %0, i32 noundef %1) #0 {
  %3 = alloca ptr, align 8
  %4 = alloca ptr, align 8
  %5 = alloca i32, align 4
  %6 = alloca ptr, align 8
  %7 = alloca i32, align 4
  %8 = alloca i32, align 4
  %9 = alloca i32, align 4
  %10 = alloca ptr, align 8
  %11 = alloca %struct.stat, align 8
  %12 = alloca i64, align 8
  %13 = alloca ptr, align 8
  store ptr %0, ptr %4, align 8, !tbaa !43
  store i32 %1, ptr %5, align 4, !tbaa !4
  %14 = load ptr, ptr %4, align 8, !tbaa !43
  %15 = icmp ne ptr %14, null
  br i1 %15, label %17, label %16

16:                                               ; preds = %2
  store ptr null, ptr %3, align 8
  br label %176

17:                                               ; preds = %2
  %18 = load i32, ptr %5, align 4, !tbaa !4
  %19 = and i32 %18, 1
  %20 = icmp ne i32 %19, 0
  br i1 %20, label %147, label %21

21:                                               ; preds = %17
  call void @llvm.lifetime.start.p0(i64 8, ptr %6) #12
  call void @llvm.lifetime.start.p0(i64 4, ptr %7) #12
  %22 = load ptr, ptr %4, align 8, !tbaa !43
  %23 = call i64 @strlen(ptr noundef %22) #14
  %24 = trunc i64 %23 to i32
  store i32 %24, ptr %7, align 4, !tbaa !4
  call void @llvm.lifetime.start.p0(i64 4, ptr %8) #12
  br label %25

25:                                               ; preds = %39, %21
  %26 = load i32, ptr %7, align 4, !tbaa !4
  %27 = icmp slt i32 1, %26
  br i1 %27, label %28, label %37

28:                                               ; preds = %25
  %29 = load ptr, ptr %4, align 8, !tbaa !43
  %30 = load i32, ptr %7, align 4, !tbaa !4
  %31 = sub nsw i32 %30, 1
  %32 = sext i32 %31 to i64
  %33 = getelementptr inbounds i8, ptr %29, i64 %32
  %34 = load i8, ptr %33, align 1, !tbaa !18
  %35 = sext i8 %34 to i32
  %36 = icmp eq i32 %35, 47
  br label %37

37:                                               ; preds = %28, %25
  %38 = phi i1 [ false, %25 ], [ %36, %28 ]
  br i1 %38, label %39, label %42

39:                                               ; preds = %37
  %40 = load i32, ptr %7, align 4, !tbaa !4
  %41 = add nsw i32 %40, -1
  store i32 %41, ptr %7, align 4, !tbaa !4
  br label %25, !llvm.loop !85

42:                                               ; preds = %37
  %43 = load i32, ptr %7, align 4, !tbaa !4
  %44 = icmp sle i32 4096, %43
  br i1 %44, label %45, label %46

45:                                               ; preds = %42
  store ptr null, ptr %3, align 8
  store i32 1, ptr %9, align 4
  br label %144

46:                                               ; preds = %42
  call void @strbuf_setlen(ptr noundef @enter_repo.used_path, i64 noundef 0)
  call void @strbuf_setlen(ptr noundef @enter_repo.validated_path, i64 noundef 0)
  %47 = load ptr, ptr %4, align 8, !tbaa !43
  %48 = load i32, ptr %7, align 4, !tbaa !4
  %49 = sext i32 %48 to i64
  call void @strbuf_add(ptr noundef @enter_repo.used_path, ptr noundef %47, i64 noundef %49)
  %50 = load ptr, ptr %4, align 8, !tbaa !43
  %51 = load i32, ptr %7, align 4, !tbaa !4
  %52 = sext i32 %51 to i64
  call void @strbuf_add(ptr noundef @enter_repo.validated_path, ptr noundef %50, i64 noundef %52)
  %53 = load ptr, ptr getelementptr inbounds nuw (%struct.strbuf, ptr @enter_repo.used_path, i32 0, i32 2), align 8, !tbaa !17
  %54 = getelementptr inbounds i8, ptr %53, i64 0
  %55 = load i8, ptr %54, align 1, !tbaa !18
  %56 = sext i8 %55 to i32
  %57 = icmp eq i32 %56, 126
  br i1 %57, label %58, label %73

58:                                               ; preds = %46
  call void @llvm.lifetime.start.p0(i64 8, ptr %10) #12
  %59 = load ptr, ptr getelementptr inbounds nuw (%struct.strbuf, ptr @enter_repo.used_path, i32 0, i32 2), align 8, !tbaa !17
  %60 = call ptr @interpolate_path(ptr noundef %59, i32 noundef 0)
  store ptr %60, ptr %10, align 8, !tbaa !43
  %61 = load ptr, ptr %10, align 8, !tbaa !43
  %62 = icmp ne ptr %61, null
  br i1 %62, label %64, label %63

63:                                               ; preds = %58
  store ptr null, ptr %3, align 8
  store i32 1, ptr %9, align 4
  br label %70

64:                                               ; preds = %58
  %65 = load ptr, ptr %10, align 8, !tbaa !43
  %66 = load ptr, ptr %10, align 8, !tbaa !43
  %67 = call i64 @strlen(ptr noundef %66) #14
  %68 = load ptr, ptr %10, align 8, !tbaa !43
  %69 = call i64 @strlen(ptr noundef %68) #14
  call void @strbuf_attach(ptr noundef @enter_repo.used_path, ptr noundef %65, i64 noundef %67, i64 noundef %69)
  store i32 0, ptr %9, align 4
  br label %70

70:                                               ; preds = %64, %63
  call void @llvm.lifetime.end.p0(i64 8, ptr %10) #12
  %71 = load i32, ptr %9, align 4
  switch i32 %71, label %144 [
    i32 0, label %72
  ]

72:                                               ; preds = %70
  br label %73

73:                                               ; preds = %72, %46
  store i32 0, ptr %8, align 4, !tbaa !4
  br label %74

74:                                               ; preds = %113, %73
  %75 = load i32, ptr %8, align 4, !tbaa !4
  %76 = sext i32 %75 to i64
  %77 = getelementptr inbounds [5 x ptr], ptr @enter_repo.suffix, i64 0, i64 %76
  %78 = load ptr, ptr %77, align 8, !tbaa !43
  %79 = icmp ne ptr %78, null
  br i1 %79, label %80, label %116

80:                                               ; preds = %74
  call void @llvm.lifetime.start.p0(i64 144, ptr %11) #12
  call void @llvm.lifetime.start.p0(i64 8, ptr %12) #12
  %81 = load i64, ptr getelementptr inbounds nuw (%struct.strbuf, ptr @enter_repo.used_path, i32 0, i32 1), align 8, !tbaa !16
  store i64 %81, ptr %12, align 8, !tbaa !11
  %82 = load i32, ptr %8, align 4, !tbaa !4
  %83 = sext i32 %82 to i64
  %84 = getelementptr inbounds [5 x ptr], ptr @enter_repo.suffix, i64 0, i64 %83
  %85 = load ptr, ptr %84, align 8, !tbaa !43
  call void @strbuf_addstr(ptr noundef @enter_repo.used_path, ptr noundef %85)
  %86 = load ptr, ptr getelementptr inbounds nuw (%struct.strbuf, ptr @enter_repo.used_path, i32 0, i32 2), align 8, !tbaa !17
  %87 = call i32 @stat64(ptr noundef %86, ptr noundef %11) #12
  %88 = icmp ne i32 %87, 0
  br i1 %88, label %108, label %89

89:                                               ; preds = %80
  %90 = getelementptr inbounds nuw %struct.stat, ptr %11, i32 0, i32 3
  %91 = load i32, ptr %90, align 8, !tbaa !86
  %92 = and i32 %91, 61440
  %93 = icmp eq i32 %92, 32768
  br i1 %93, label %103, label %94

94:                                               ; preds = %89
  %95 = getelementptr inbounds nuw %struct.stat, ptr %11, i32 0, i32 3
  %96 = load i32, ptr %95, align 8, !tbaa !86
  %97 = and i32 %96, 61440
  %98 = icmp eq i32 %97, 16384
  br i1 %98, label %99, label %108

99:                                               ; preds = %94
  %100 = load ptr, ptr getelementptr inbounds nuw (%struct.strbuf, ptr @enter_repo.used_path, i32 0, i32 2), align 8, !tbaa !17
  %101 = call i32 @is_git_directory(ptr noundef %100)
  %102 = icmp ne i32 %101, 0
  br i1 %102, label %103, label %108

103:                                              ; preds = %99, %89
  %104 = load i32, ptr %8, align 4, !tbaa !4
  %105 = sext i32 %104 to i64
  %106 = getelementptr inbounds [5 x ptr], ptr @enter_repo.suffix, i64 0, i64 %105
  %107 = load ptr, ptr %106, align 8, !tbaa !43
  call void @strbuf_addstr(ptr noundef @enter_repo.validated_path, ptr noundef %107)
  store i32 4, ptr %9, align 4
  br label %110

108:                                              ; preds = %99, %94, %80
  %109 = load i64, ptr %12, align 8, !tbaa !11
  call void @strbuf_setlen(ptr noundef @enter_repo.used_path, i64 noundef %109)
  store i32 0, ptr %9, align 4
  br label %110

110:                                              ; preds = %108, %103
  call void @llvm.lifetime.end.p0(i64 8, ptr %12) #12
  call void @llvm.lifetime.end.p0(i64 144, ptr %11) #12
  %111 = load i32, ptr %9, align 4
  switch i32 %111, label %178 [
    i32 0, label %112
    i32 4, label %116
  ]

112:                                              ; preds = %110
  br label %113

113:                                              ; preds = %112
  %114 = load i32, ptr %8, align 4, !tbaa !4
  %115 = add nsw i32 %114, 1
  store i32 %115, ptr %8, align 4, !tbaa !4
  br label %74, !llvm.loop !89

116:                                              ; preds = %110, %74
  %117 = load i32, ptr %8, align 4, !tbaa !4
  %118 = sext i32 %117 to i64
  %119 = getelementptr inbounds [5 x ptr], ptr @enter_repo.suffix, i64 0, i64 %118
  %120 = load ptr, ptr %119, align 8, !tbaa !43
  %121 = icmp ne ptr %120, null
  br i1 %121, label %123, label %122

122:                                              ; preds = %116
  store ptr null, ptr %3, align 8
  store i32 1, ptr %9, align 4
  br label %144

123:                                              ; preds = %116
  %124 = load ptr, ptr getelementptr inbounds nuw (%struct.strbuf, ptr @enter_repo.used_path, i32 0, i32 2), align 8, !tbaa !17
  %125 = call ptr @read_gitfile_gently(ptr noundef %124, ptr noundef null)
  store ptr %125, ptr %6, align 8, !tbaa !43
  %126 = load i32, ptr %5, align 4, !tbaa !4
  %127 = and i32 %126, 2
  %128 = icmp ne i32 %127, 0
  br i1 %128, label %132, label %129

129:                                              ; preds = %123
  %130 = load ptr, ptr %6, align 8, !tbaa !43
  %131 = load ptr, ptr getelementptr inbounds nuw (%struct.strbuf, ptr @enter_repo.used_path, i32 0, i32 2), align 8, !tbaa !17
  call void @die_upon_dubious_ownership(ptr noundef %130, ptr noundef null, ptr noundef %131)
  br label %132

132:                                              ; preds = %129, %123
  %133 = load ptr, ptr %6, align 8, !tbaa !43
  %134 = icmp ne ptr %133, null
  br i1 %134, label %135, label %137

135:                                              ; preds = %132
  call void @strbuf_setlen(ptr noundef @enter_repo.used_path, i64 noundef 0)
  %136 = load ptr, ptr %6, align 8, !tbaa !43
  call void @strbuf_addstr(ptr noundef @enter_repo.used_path, ptr noundef %136)
  br label %137

137:                                              ; preds = %135, %132
  %138 = load ptr, ptr getelementptr inbounds nuw (%struct.strbuf, ptr @enter_repo.used_path, i32 0, i32 2), align 8, !tbaa !17
  %139 = call i32 @chdir(ptr noundef %138) #12
  %140 = icmp ne i32 %139, 0
  br i1 %140, label %141, label %142

141:                                              ; preds = %137
  store ptr null, ptr %3, align 8
  store i32 1, ptr %9, align 4
  br label %144

142:                                              ; preds = %137
  %143 = load ptr, ptr getelementptr inbounds nuw (%struct.strbuf, ptr @enter_repo.validated_path, i32 0, i32 2), align 8, !tbaa !17
  store ptr %143, ptr %4, align 8, !tbaa !43
  store i32 0, ptr %9, align 4
  br label %144

144:                                              ; preds = %142, %141, %122, %70, %45
  call void @llvm.lifetime.end.p0(i64 4, ptr %8) #12
  call void @llvm.lifetime.end.p0(i64 4, ptr %7) #12
  call void @llvm.lifetime.end.p0(i64 8, ptr %6) #12
  %145 = load i32, ptr %9, align 4
  switch i32 %145, label %178 [
    i32 0, label %146
    i32 1, label %176
  ]

146:                                              ; preds = %144
  br label %170

147:                                              ; preds = %17
  call void @llvm.lifetime.start.p0(i64 8, ptr %13) #12
  %148 = load ptr, ptr %4, align 8, !tbaa !43
  %149 = call ptr @read_gitfile_gently(ptr noundef %148, ptr noundef null)
  store ptr %149, ptr %13, align 8, !tbaa !43
  %150 = load i32, ptr %5, align 4, !tbaa !4
  %151 = and i32 %150, 2
  %152 = icmp ne i32 %151, 0
  br i1 %152, label %156, label %153

153:                                              ; preds = %147
  %154 = load ptr, ptr %13, align 8, !tbaa !43
  %155 = load ptr, ptr %4, align 8, !tbaa !43
  call void @die_upon_dubious_ownership(ptr noundef %154, ptr noundef null, ptr noundef %155)
  br label %156

156:                                              ; preds = %153, %147
  %157 = load ptr, ptr %13, align 8, !tbaa !43
  %158 = icmp ne ptr %157, null
  br i1 %158, label %159, label %161

159:                                              ; preds = %156
  %160 = load ptr, ptr %13, align 8, !tbaa !43
  store ptr %160, ptr %4, align 8, !tbaa !43
  br label %161

161:                                              ; preds = %159, %156
  %162 = load ptr, ptr %4, align 8, !tbaa !43
  %163 = call i32 @chdir(ptr noundef %162) #12
  %164 = icmp ne i32 %163, 0
  br i1 %164, label %165, label %166

165:                                              ; preds = %161
  store ptr null, ptr %3, align 8
  store i32 1, ptr %9, align 4
  br label %167

166:                                              ; preds = %161
  store i32 0, ptr %9, align 4
  br label %167

167:                                              ; preds = %166, %165
  call void @llvm.lifetime.end.p0(i64 8, ptr %13) #12
  %168 = load i32, ptr %9, align 4
  switch i32 %168, label %178 [
    i32 0, label %169
    i32 1, label %176
  ]

169:                                              ; preds = %167
  br label %170

170:                                              ; preds = %169, %146
  %171 = call i32 @is_git_directory(ptr noundef @.str.9)
  %172 = icmp ne i32 %171, 0
  br i1 %172, label %173, label %175

173:                                              ; preds = %170
  call void @set_git_dir(ptr noundef @.str.9, i32 noundef 0)
  call void @check_repository_format(ptr noundef null)
  %174 = load ptr, ptr %4, align 8, !tbaa !43
  store ptr %174, ptr %3, align 8
  br label %176

175:                                              ; preds = %170
  store ptr null, ptr %3, align 8
  br label %176

176:                                              ; preds = %175, %173, %167, %144, %16
  %177 = load ptr, ptr %3, align 8
  ret ptr %177

178:                                              ; preds = %167, %144, %110
  unreachable
}