; Function Attrs: nounwind uwtable
define dso_local ptr @enter_repo(ptr noundef %0, i32 noundef %1) local_unnamed_addr #3 {
  %3 = alloca %struct.stat, align 8
  %.not = icmp eq ptr %0, null
  br i1 %.not, label %.critedge66.thread, label %4

4:                                                ; preds = %2
  %5 = and i32 %1, 1
  %.not52 = icmp eq i32 %5, 0
  br i1 %.not52, label %6, label %68

6:                                                ; preds = %4
  %7 = tail call i64 @strlen(ptr noundef nonnull dereferenceable(1) %0) #30
  %8 = trunc i64 %7 to i32
  %invariant.gep = getelementptr i8, ptr %0, i64 -1
  %9 = icmp sgt i32 %8, 1
  br i1 %9, label %.lr.ph, label %.critedge.thread

.lr.ph:                                           ; preds = %6, %13
  %.04185 = phi i32 [ %14, %13 ], [ %8, %6 ]
  %10 = zext nneg i32 %.04185 to i64
  %gep = getelementptr i8, ptr %invariant.gep, i64 %10
  %11 = load i8, ptr %gep, align 1, !tbaa !14
  %12 = icmp eq i8 %11, 47
  br i1 %12, label %13, label %.critedge

13:                                               ; preds = %.lr.ph
  %14 = add nsw i32 %.04185, -1
  %15 = icmp sgt i32 %.04185, 2
  br i1 %15, label %.lr.ph, label %.critedge.thread, !llvm.loop !72

.critedge:                                        ; preds = %.lr.ph
  %16 = icmp samesign ugt i32 %.04185, 4095
  br i1 %16, label %.critedge66.thread, label %.critedge.thread

.critedge.thread:                                 ; preds = %13, %6, %.critedge
  %.04184 = phi i32 [ %.04185, %.critedge ], [ %8, %6 ], [ 1, %13 ]
  store i64 0, ptr getelementptr inbounds nuw (i8, ptr @enter_repo.used_path, i64 8), align 8, !tbaa !8
  %17 = load ptr, ptr getelementptr inbounds nuw (i8, ptr @enter_repo.used_path, i64 16), align 8, !tbaa !13
  %.not9.i = icmp eq ptr %17, @strbuf_slopbuf
  br i1 %.not9.i, label %strbuf_setlen.exit, label %18

18:                                               ; preds = %.critedge.thread
  store i8 0, ptr %17, align 1, !tbaa !14
  br label %strbuf_setlen.exit

strbuf_setlen.exit:                               ; preds = %.critedge.thread, %18
  store i64 0, ptr getelementptr inbounds nuw (i8, ptr @enter_repo.validated_path, i64 8), align 8, !tbaa !8
  %19 = load ptr, ptr getelementptr inbounds nuw (i8, ptr @enter_repo.validated_path, i64 16), align 8, !tbaa !13
  %.not9.i72 = icmp eq ptr %19, @strbuf_slopbuf
  br i1 %.not9.i72, label %strbuf_setlen.exit73, label %20

20:                                               ; preds = %strbuf_setlen.exit
  store i8 0, ptr %19, align 1, !tbaa !14
  br label %strbuf_setlen.exit73

strbuf_setlen.exit73:                             ; preds = %strbuf_setlen.exit, %20
  %21 = sext i32 %.04184 to i64
  tail call void @strbuf_add(ptr noundef nonnull @enter_repo.used_path, ptr noundef nonnull %0, i64 noundef %21) #29
  tail call void @strbuf_add(ptr noundef nonnull @enter_repo.validated_path, ptr noundef nonnull %0, i64 noundef %21) #29
  %22 = load ptr, ptr getelementptr inbounds nuw (i8, ptr @enter_repo.used_path, i64 16), align 8, !tbaa !13
  %23 = load i8, ptr %22, align 1, !tbaa !14
  %24 = icmp eq i8 %23, 126
  br i1 %24, label %25, label %29

25:                                               ; preds = %strbuf_setlen.exit73
  %26 = tail call ptr @interpolate_path(ptr noundef nonnull %22, i32 noundef 0)
  %.not53.not = icmp eq ptr %26, null
  br i1 %.not53.not, label %.critedge66.thread, label %27

27:                                               ; preds = %25
  %28 = tail call i64 @strlen(ptr noundef nonnull dereferenceable(1) %26) #30
  tail call void @strbuf_attach(ptr noundef nonnull @enter_repo.used_path, ptr noundef nonnull %26, i64 noundef %28, i64 noundef %28) #29
  br label %29

29:                                               ; preds = %27, %strbuf_setlen.exit73
  %30 = getelementptr inbounds nuw i8, ptr %3, i64 24
  %.pre92 = load i64, ptr getelementptr inbounds nuw (i8, ptr @enter_repo.used_path, i64 8), align 8, !tbaa !8
  br label %31

31:                                               ; preds = %29, %52
  %32 = phi i64 [ %.pre92, %29 ], [ %53, %52 ]
  %indvars.iv = phi i64 [ 0, %29 ], [ %indvars.iv.next, %52 ]
  %33 = getelementptr inbounds nuw [5 x ptr], ptr @enter_repo.suffix, i64 0, i64 %indvars.iv
  call void @llvm.lifetime.start.p0(i64 144, ptr nonnull %3) #29
  %34 = load ptr, ptr %33, align 8, !tbaa !65
  %35 = tail call i64 @strlen(ptr noundef nonnull dereferenceable(1) %34) #30
  tail call void @strbuf_add(ptr noundef nonnull @enter_repo.used_path, ptr noundef nonnull %34, i64 noundef %35) #29
  %36 = load ptr, ptr getelementptr inbounds nuw (i8, ptr @enter_repo.used_path, i64 16), align 8, !tbaa !13
  %37 = call i32 @stat64(ptr noundef %36, ptr noundef nonnull %3) #29
  %.not55 = icmp eq i32 %37, 0
  br i1 %.not55, label %38, label %44

38:                                               ; preds = %31
  %39 = load i32, ptr %30, align 8, !tbaa !73
  %40 = trunc i32 %39 to i16
  %trunc = and i16 %40, -4096
  switch i16 %trunc, label %44 [
    i16 -32768, label %54
    i16 16384, label %41
  ]

41:                                               ; preds = %38
  %42 = load ptr, ptr getelementptr inbounds nuw (i8, ptr @enter_repo.used_path, i64 16), align 8, !tbaa !13
  %43 = tail call i32 @is_git_directory(ptr noundef %42) #29
  %.not56 = icmp eq i32 %43, 0
  br i1 %.not56, label %44, label %54

44:                                               ; preds = %38, %41, %31
  %45 = load i64, ptr @enter_repo.used_path, align 8, !tbaa !15
  %spec.select.i74 = tail call i64 @llvm.usub.sat.i64(i64 %45, i64 1)
  %46 = icmp ugt i64 %32, %spec.select.i74
  br i1 %46, label %47, label %48

47:                                               ; preds = %44
  tail call void (ptr, i32, ptr, ...) @BUG_fl(ptr noundef nonnull @.str.36, i32 noundef 167, ptr noundef nonnull @.str.37) #28
  unreachable

48:                                               ; preds = %44
  store i64 %32, ptr getelementptr inbounds nuw (i8, ptr @enter_repo.used_path, i64 8), align 8, !tbaa !8
  %49 = load ptr, ptr getelementptr inbounds nuw (i8, ptr @enter_repo.used_path, i64 16), align 8, !tbaa !13
  %.not9.i75 = icmp eq ptr %49, @strbuf_slopbuf
  br i1 %.not9.i75, label %52, label %50

50:                                               ; preds = %48
  %51 = getelementptr inbounds nuw i8, ptr %49, i64 %32
  store i8 0, ptr %51, align 1, !tbaa !14
  %.pre = load i64, ptr getelementptr inbounds nuw (i8, ptr @enter_repo.used_path, i64 8), align 8, !tbaa !8
  br label %52

52:                                               ; preds = %48, %50
  %53 = phi i64 [ %32, %48 ], [ %.pre, %50 ]
  call void @llvm.lifetime.end.p0(i64 144, ptr nonnull %3) #29
  %indvars.iv.next = add nuw nsw i64 %indvars.iv, 1
  %cond = icmp eq i64 %indvars.iv.next, 4
  br i1 %cond, label %.critedge66.thread, label %31, !llvm.loop !76

54:                                               ; preds = %41, %38
  %55 = tail call i64 @strlen(ptr noundef nonnull dereferenceable(1) %34) #30
  tail call void @strbuf_add(ptr noundef nonnull @enter_repo.validated_path, ptr noundef nonnull %34, i64 noundef %55) #29
  call void @llvm.lifetime.end.p0(i64 144, ptr nonnull %3) #29
  %56 = load ptr, ptr getelementptr inbounds nuw (i8, ptr @enter_repo.used_path, i64 16), align 8, !tbaa !13
  %57 = tail call ptr @read_gitfile_gently(ptr noundef %56, ptr noundef null) #29
  %58 = and i32 %1, 2
  %.not58 = icmp eq i32 %58, 0
  br i1 %.not58, label %59, label %61

59:                                               ; preds = %54
  %60 = load ptr, ptr getelementptr inbounds nuw (i8, ptr @enter_repo.used_path, i64 16), align 8, !tbaa !13
  tail call void @die_upon_dubious_ownership(ptr noundef %57, ptr noundef null, ptr noundef %60) #29
  br label %61

61:                                               ; preds = %59, %54
  %.not59 = icmp eq ptr %57, null
  br i1 %.not59, label %64, label %62

62:                                               ; preds = %61
  tail call fastcc void @strbuf_setlen(ptr noundef nonnull @enter_repo.used_path, i64 noundef 0)
  %63 = tail call i64 @strlen(ptr noundef nonnull dereferenceable(1) %57) #30
  tail call void @strbuf_add(ptr noundef nonnull @enter_repo.used_path, ptr noundef nonnull %57, i64 noundef %63) #29
  br label %64

64:                                               ; preds = %62, %61
  %65 = load ptr, ptr getelementptr inbounds nuw (i8, ptr @enter_repo.used_path, i64 16), align 8, !tbaa !13
  %66 = tail call i32 @chdir(ptr noundef %65) #29
  %.not60 = icmp eq i32 %66, 0
  %67 = load ptr, ptr getelementptr inbounds nuw (i8, ptr @enter_repo.validated_path, i64 16), align 8
  br i1 %.not60, label %.critedge66, label %.critedge66.thread

68:                                               ; preds = %4
  %69 = tail call ptr @read_gitfile_gently(ptr noundef nonnull %0, ptr noundef null) #29
  %70 = and i32 %1, 2
  %.not61 = icmp eq i32 %70, 0
  br i1 %.not61, label %71, label %72

71:                                               ; preds = %68
  tail call void @die_upon_dubious_ownership(ptr noundef %69, ptr noundef null, ptr noundef nonnull %0) #29
  br label %72

72:                                               ; preds = %71, %68
  %.not62 = icmp eq ptr %69, null
  %spec.select = select i1 %.not62, ptr %0, ptr %69
  %73 = tail call i32 @chdir(ptr noundef nonnull %spec.select) #29
  %.not63.not = icmp eq i32 %73, 0
  br i1 %.not63.not, label %.critedge66, label %.critedge66.thread

.critedge66:                                      ; preds = %64, %72
  %.139 = phi ptr [ %spec.select, %72 ], [ %67, %64 ]
  %74 = tail call i32 @is_git_directory(ptr noundef nonnull @.str.9) #29
  %.not64 = icmp eq i32 %74, 0
  br i1 %.not64, label %.critedge66.thread, label %75

75:                                               ; preds = %.critedge66
  tail call void @set_git_dir(ptr noundef nonnull @.str.9, i32 noundef 0) #29
  tail call void @check_repository_format(ptr noundef null) #29
  br label %.critedge66.thread

.critedge66.thread:                               ; preds = %52, %64, %25, %.critedge, %72, %.critedge66, %2, %75
  %.0 = phi ptr [ null, %72 ], [ %.139, %75 ], [ null, %2 ], [ null, %.critedge66 ], [ null, %.critedge ], [ null, %25 ], [ null, %64 ], [ null, %52 ]
  ret ptr %.0
}